target datalayout = "e-m:e-p270:32:32-p271:32:32-p272:64:64-i64:64-i128:128-f80:128-n8:16:32:64-S128"
target triple = "x86_64-pc-linux-gnu"

%"class.std::unique_ptr.85" = type { %"struct.std::__uniq_ptr_data.86" }
%"struct.std::__uniq_ptr_data.86" = type { %"class.std::__uniq_ptr_impl.87" }
%"class.std::__uniq_ptr_impl.87" = type { %"class.std::tuple.88" }
%"class.std::tuple.88" = type { %"struct.std::_Tuple_impl.89" }
%"struct.std::_Tuple_impl.89" = type { %"struct.std::_Head_base.92" }
%"struct.std::_Head_base.92" = type { ptr }
%"class.gmx::Awh" = type { %"class.std::vector.80", i64, i32, ptr, %"class.std::unique_ptr.85", ptr, double, i32, i32 }
%"class.std::vector.80" = type { %"struct.std::_Vector_base.81" }
%"struct.std::_Vector_base.81" = type { %"struct.std::_Vector_base<gmx::BiasCoupledToSystem, std::allocator<gmx::BiasCoupledToSystem>>::_Vector_impl" }
%"struct.std::_Vector_base<gmx::BiasCoupledToSystem, std::allocator<gmx::BiasCoupledToSystem>>::_Vector_impl" = type { %"struct.std::_Vector_base<gmx::BiasCoupledToSystem, std::allocator<gmx::BiasCoupledToSystem>>::_Vector_impl_data" }
%"struct.std::_Vector_base<gmx::BiasCoupledToSystem, std::allocator<gmx::BiasCoupledToSystem>>::_Vector_impl_data" = type { ptr, ptr, ptr }

; Function Attrs: mustprogress nounwind uwtable
define noundef zeroext i1 @_ZNK3gmx3Awh12isOutputStepEl(ptr noundef nonnull align 8 dereferenceable(80) %0, i64 noundef %1) #1 align 2 {
  %3 = alloca ptr, align 8
  %4 = alloca i64, align 8
  store ptr %0, ptr %3, align 8
  store i64 %1, ptr %4, align 8
  %5 = load ptr, ptr %3, align 8
  %6 = getelementptr inbounds %"class.gmx::Awh", ptr %5, i32 0, i32 2
  %7 = load i32, ptr %6, align 8
  %8 = icmp sgt i32 %7, 0
  br i1 %8, label %9, label %16

9:                                                ; preds = %2
  %10 = load i64, ptr %4, align 8
  %11 = getelementptr inbounds %"class.gmx::Awh", ptr %5, i32 0, i32 2
  %12 = load i32, ptr %11, align 8
  %13 = sext i32 %12 to i64
  %14 = srem i64 %10, %13
  %15 = icmp eq i64 %14, 0
  br label %16

16:                                               ; preds = %9, %2
  %17 = phi i1 [ false, %2 ], [ %15, %9 ]
  ret i1 %17
}