; Function Attrs: mustprogress nofree norecurse nosync nounwind willreturn memory(argmem: read) uwtable
define noundef zeroext i1 @_ZNK3gmx3Awh12isOutputStepEl(ptr nocapture noundef nonnull readonly align 8 dereferenceable(80) %0, i64 noundef %1) local_unnamed_addr #13 align 2 {
  %3 = getelementptr inbounds i8, ptr %0, i64 32
  %4 = load i32, ptr %3, align 8
  %5 = icmp sgt i32 %4, 0
  br i1 %5, label %6, label %10

6:                                                ; preds = %2
  %7 = zext nneg i32 %4 to i64
  %8 = srem i64 %1, %7
  %9 = icmp eq i64 %8, 0
  br label %10

10:                                               ; preds = %6, %2
  %11 = phi i1 [ false, %2 ], [ %9, %6 ]
  ret i1 %11
}